target datalayout = "e-m:e-p270:32:32-p271:32:32-p272:64:64-i64:64-i128:128-f80:128-n8:16:32:64-S128"
target triple = "x86_64-unknown-linux-gnu"

%"struct.std::_Rb_tree_header" = type { %"struct.std::_Rb_tree_node_base", i64 }
%"struct.std::_Rb_tree_node_base" = type { i32, ptr, ptr, ptr }
%"struct.std::__detail::_Hash_node_base" = type { ptr }
%"struct.std::__detail::_Prime_rehash_policy" = type { float, i64 }
%"class.std::__cxx11::basic_string" = type { %"struct.std::__cxx11::basic_string<char>::_Alloc_hider", i64, %union.anon }
%"struct.std::__cxx11::basic_string<char>::_Alloc_hider" = type { ptr }
%union.anon = type { i64, [8 x i8] }
%struct.llama_buffer = type <{ ptr, i64, i8, [7 x i8] }>
%struct.llama_model = type { i32, i32, i32, %"class.std::__cxx11::basic_string", %struct.llama_hparams, %struct.llama_vocab, ptr, ptr, ptr, ptr, ptr, ptr, ptr, %"class.std::vector.188", i32, %"class.std::unordered_map.193", ptr, %struct.llama_buffer, %"class.std::unique_ptr", %struct.llama_mlock, %struct.llama_mlock, %"class.std::vector.209", i64, i64 }
%struct.llama_hparams = type { i8, i32, i32, i32, i32, i32, i32, i32, i32, i32, i32, float, float, float, float, i32, i8, float, float }
%struct.llama_vocab = type { i32, %"class.std::unordered_map.155", %"class.std::vector.175", %"class.std::unordered_map.155", %"class.std::map.180", i32, i32, i32, i32, i32, i32, i32, i32, i32, i32, i32, i32 }
%"class.std::vector.175" = type { %"struct.std::_Vector_base.176" }
%"struct.std::_Vector_base.176" = type { %"struct.std::_Vector_base<llama_vocab::token_data, std::allocator<llama_vocab::token_data>>::_Vector_impl" }
%"struct.std::_Vector_base<llama_vocab::token_data, std::allocator<llama_vocab::token_data>>::_Vector_impl" = type { %"struct.std::_Vector_base<llama_vocab::token_data, std::allocator<llama_vocab::token_data>>::_Vector_impl_data" }
%"struct.std::_Vector_base<llama_vocab::token_data, std::allocator<llama_vocab::token_data>>::_Vector_impl_data" = type { ptr, ptr, ptr }
%"class.std::unordered_map.155" = type { %"class.std::_Hashtable.156" }
%"class.std::_Hashtable.156" = type { ptr, i64, %"struct.std::__detail::_Hash_node_base", i64, %"struct.std::__detail::_Prime_rehash_policy", ptr }
%"class.std::map.180" = type { %"class.std::_Rb_tree.181" }
%"class.std::_Rb_tree.181" = type { %"struct.std::_Rb_tree<std::pair<std::__cxx11::basic_string<char>, std::__cxx11::basic_string<char>>, std::pair<const std::pair<std::__cxx11::basic_string<char>, std::__cxx11::basic_string<char>>, int>, std::_Select1st<std::pair<const std::pair<std::__cxx11::basic_string<char>, std::__cxx11::basic_string<char>>, int>>, std::less<std::pair<std::__cxx11::basic_string<char>, std::__cxx11::basic_string<char>>>>::_Rb_tree_impl" }
%"struct.std::_Rb_tree<std::pair<std::__cxx11::basic_string<char>, std::__cxx11::basic_string<char>>, std::pair<const std::pair<std::__cxx11::basic_string<char>, std::__cxx11::basic_string<char>>, int>, std::_Select1st<std::pair<const std::pair<std::__cxx11::basic_string<char>, std::__cxx11::basic_string<char>>, int>>, std::less<std::pair<std::__cxx11::basic_string<char>, std::__cxx11::basic_string<char>>>>::_Rb_tree_impl" = type { %"struct.std::_Rb_tree_key_compare.185", %"struct.std::_Rb_tree_header" }
%"struct.std::_Rb_tree_key_compare.185" = type { %"struct.std::less.186" }
%"struct.std::less.186" = type { i8 }
%"class.std::vector.188" = type { %"struct.std::_Vector_base.189" }
%"struct.std::_Vector_base.189" = type { %"struct.std::_Vector_base<llama_layer, std::allocator<llama_layer>>::_Vector_impl" }
%"struct.std::_Vector_base<llama_layer, std::allocator<llama_layer>>::_Vector_impl" = type { %"struct.std::_Vector_base<llama_layer, std::allocator<llama_layer>>::_Vector_impl_data" }
%"struct.std::_Vector_base<llama_layer, std::allocator<llama_layer>>::_Vector_impl_data" = type { ptr, ptr, ptr }
%"class.std::unordered_map.193" = type { %"class.std::_Hashtable.194" }
%"class.std::_Hashtable.194" = type { ptr, i64, %"struct.std::__detail::_Hash_node_base", i64, %"struct.std::__detail::_Prime_rehash_policy", ptr }
%"class.std::unique_ptr" = type { %"struct.std::__uniq_ptr_data" }
%"struct.std::__uniq_ptr_data" = type { %"class.std::__uniq_ptr_impl" }
%"class.std::__uniq_ptr_impl" = type { %"class.std::tuple" }
%"class.std::tuple" = type { %"struct.std::_Tuple_impl" }
%"struct.std::_Tuple_impl" = type { %"struct.std::_Head_base.208" }
%"struct.std::_Head_base.208" = type { ptr }
%struct.llama_mlock = type <{ ptr, i64, i8, [7 x i8] }>
%"class.std::vector.209" = type { %"struct.std::_Vector_base.210" }
%"struct.std::_Vector_base.210" = type { %"struct.std::_Vector_base<std::pair<std::__cxx11::basic_string<char>, ggml_tensor *>, std::allocator<std::pair<std::__cxx11::basic_string<char>, ggml_tensor *>>>::_Vector_impl" }
%"struct.std::_Vector_base<std::pair<std::__cxx11::basic_string<char>, ggml_tensor *>, std::allocator<std::pair<std::__cxx11::basic_string<char>, ggml_tensor *>>>::_Vector_impl" = type { %"struct.std::_Vector_base<std::pair<std::__cxx11::basic_string<char>, ggml_tensor *>, std::allocator<std::pair<std::__cxx11::basic_string<char>, ggml_tensor *>>>::_Vector_impl_data" }
%"struct.std::_Vector_base<std::pair<std::__cxx11::basic_string<char>, ggml_tensor *>, std::allocator<std::pair<std::__cxx11::basic_string<char>, ggml_tensor *>>>::_Vector_impl_data" = type { ptr, ptr, ptr }
%"struct.std::__detail::_Node_const_iterator" = type { %"struct.std::__detail::_Node_iterator_base.257" }
%"struct.std::__detail::_Node_iterator_base.257" = type { ptr }
%"struct.std::pair.258" = type { %"class.std::__cxx11::basic_string", %"class.std::__cxx11::basic_string" }
%"struct.std::__detail::_Hash_node_value_base.326" = type { %"struct.__gnu_cxx::__aligned_buffer.327" }
%"struct.__gnu_cxx::__aligned_buffer.327" = type { %"union.std::aligned_storage<64, 8>::type" }
%"union.std::aligned_storage<64, 8>::type" = type { [64 x i8] }

@.str.188 = private unnamed_addr constant [3 x i8] c"%s\00", align 1

; Function Attrs: mustprogress nounwind uwtable
define linkonce_odr noundef ptr @_ZNKSt8__detail10_Hash_nodeISt4pairIKNSt7__cxx1112basic_stringIcSt11char_traitsIcESaIcEEES7_ELb1EE7_M_nextEv(ptr noundef nonnull align 8 dereferenceable(80) %this) #1 comdat align 2 {
entry:
  %this.addr = alloca ptr, align 8
  store ptr %this, ptr %this.addr, align 8
  %this1 = load ptr, ptr %this.addr, align 8
  %_M_nxt = getelementptr inbounds %"struct.std::__detail::_Hash_node_base", ptr %this1, i32 0, i32 0
  %0 = load ptr, ptr %_M_nxt, align 8
  ret ptr %0
}

; Function Attrs: mustprogress nounwind uwtable
define linkonce_odr noundef ptr @_ZN9__gnu_cxx16__aligned_bufferISt4pairIKNSt7__cxx1112basic_stringIcSt11char_traitsIcESaIcEEES7_EE7_M_addrEv(ptr noundef nonnull align 8 dereferenceable(64) %this) #1 comdat align 2 {
entry:
  %this.addr = alloca ptr, align 8
  store ptr %this, ptr %this.addr, align 8
  %this1 = load ptr, ptr %this.addr, align 8
  %_M_storage = getelementptr inbounds %"struct.__gnu_cxx::__aligned_buffer.327", ptr %this1, i32 0, i32 0
  ret ptr %_M_storage
}

; Function Attrs: mustprogress nounwind uwtable
define linkonce_odr void @_ZNSt8__detail19_Node_iterator_baseISt4pairIKNSt7__cxx1112basic_stringIcSt11char_traitsIcESaIcEEES7_ELb1EE7_M_incrEv(ptr noundef nonnull align 8 dereferenceable(8) %this) #1 comdat align 2 {
entry:
  %this.addr = alloca ptr, align 8
  store ptr %this, ptr %this.addr, align 8
  %this1 = load ptr, ptr %this.addr, align 8
  %_M_cur = getelementptr inbounds %"struct.std::__detail::_Node_iterator_base.257", ptr %this1, i32 0, i32 0
  %0 = load ptr, ptr %_M_cur, align 8
  %call = call noundef ptr @_ZNKSt8__detail10_Hash_nodeISt4pairIKNSt7__cxx1112basic_stringIcSt11char_traitsIcESaIcEEES7_ELb1EE7_M_nextEv(ptr noundef nonnull align 8 dereferenceable(80) %0) #3
  %_M_cur2 = getelementptr inbounds %"struct.std::__detail::_Node_iterator_base.257", ptr %this1, i32 0, i32 0
  store ptr %call, ptr %_M_cur2, align 8
  ret void
}

; Function Attrs: mustprogress nounwind uwtable
define linkonce_odr void @_ZNSt8__detail19_Node_iterator_baseISt4pairIKNSt7__cxx1112basic_stringIcSt11char_traitsIcESaIcEEES7_ELb1EEC2EPNS_10_Hash_nodeIS9_Lb1EEE(ptr noundef nonnull align 8 dereferenceable(8) %this, ptr noundef %__p) unnamed_addr #1 comdat align 2 {
entry:
  %this.addr = alloca ptr, align 8
  %__p.addr = alloca ptr, align 8
  store ptr %this, ptr %this.addr, align 8
  store ptr %__p, ptr %__p.addr, align 8
  %this1 = load ptr, ptr %this.addr, align 8
  %_M_cur = getelementptr inbounds %"struct.std::__detail::_Node_iterator_base.257", ptr %this1, i32 0, i32 0
  %0 = load ptr, ptr %__p.addr, align 8
  store ptr %0, ptr %_M_cur, align 8
  ret void
}

; Function Attrs: mustprogress nounwind uwtable
define linkonce_odr noundef ptr @_ZN9__gnu_cxx16__aligned_bufferISt4pairIKNSt7__cxx1112basic_stringIcSt11char_traitsIcESaIcEEES7_EE6_M_ptrEv(ptr noundef nonnull align 8 dereferenceable(64) %this) #1 comdat align 2 {
entry:
  %this.addr = alloca ptr, align 8
  store ptr %this, ptr %this.addr, align 8
  %this1 = load ptr, ptr %this.addr, align 8
  %call = call noundef ptr @_ZN9__gnu_cxx16__aligned_bufferISt4pairIKNSt7__cxx1112basic_stringIcSt11char_traitsIcESaIcEEES7_EE7_M_addrEv(ptr noundef nonnull align 8 dereferenceable(64) %this1) #3
  ret ptr %call
}

; Function Attrs: mustprogress nounwind uwtable
define linkonce_odr noundef nonnull align 8 dereferenceable(8) ptr @_ZNSt8__detail20_Node_const_iteratorISt4pairIKNSt7__cxx1112basic_stringIcSt11char_traitsIcESaIcEEES7_ELb0ELb1EEppEv(ptr noundef nonnull align 8 dereferenceable(8) %this) #1 comdat align 2 {
entry:
  %this.addr = alloca ptr, align 8
  store ptr %this, ptr %this.addr, align 8
  %this1 = load ptr, ptr %this.addr, align 8
  call void @_ZNSt8__detail19_Node_iterator_baseISt4pairIKNSt7__cxx1112basic_stringIcSt11char_traitsIcESaIcEEES7_ELb1EE7_M_incrEv(ptr noundef nonnull align 8 dereferenceable(8) %this1) #3
  ret ptr %this1
}

; Function Attrs: mustprogress nounwind uwtable
define linkonce_odr void @_ZNSt8__detail20_Node_const_iteratorISt4pairIKNSt7__cxx1112basic_stringIcSt11char_traitsIcESaIcEEES7_ELb0ELb1EEC2EPNS_10_Hash_nodeIS9_Lb1EEE(ptr noundef nonnull align 8 dereferenceable(8) %this, ptr noundef %__p) unnamed_addr #1 comdat align 2 {
entry:
  %this.addr = alloca ptr, align 8
  %__p.addr = alloca ptr, align 8
  store ptr %this, ptr %this.addr, align 8
  store ptr %__p, ptr %__p.addr, align 8
  %this1 = load ptr, ptr %this.addr, align 8
  %0 = load ptr, ptr %__p.addr, align 8
  call void @_ZNSt8__detail19_Node_iterator_baseISt4pairIKNSt7__cxx1112basic_stringIcSt11char_traitsIcESaIcEEES7_ELb1EEC2EPNS_10_Hash_nodeIS9_Lb1EEE(ptr noundef nonnull align 8 dereferenceable(8) %this1, ptr noundef %0) #3
  ret void
}

; Function Attrs: mustprogress nounwind uwtable
define linkonce_odr noundef ptr @_ZNKSt10_HashtableINSt7__cxx1112basic_stringIcSt11char_traitsIcESaIcEEESt4pairIKS5_S5_ESaIS8_ENSt8__detail10_Select1stESt8equal_toIS5_ESt4hashIS5_ENSA_18_Mod_range_hashingENSA_20_Default_ranged_hashENSA_20_Prime_rehash_policyENSA_17_Hashtable_traitsILb1ELb0ELb1EEEE8_M_beginEv(ptr noundef nonnull align 8 dereferenceable(56) %this) #1 comdat align 2 {
entry:
  %this.addr = alloca ptr, align 8
  store ptr %this, ptr %this.addr, align 8
  %this1 = load ptr, ptr %this.addr, align 8
  %_M_before_begin = getelementptr inbounds %"class.std::_Hashtable.194", ptr %this1, i32 0, i32 2
  %_M_nxt = getelementptr inbounds %"struct.std::__detail::_Hash_node_base", ptr %_M_before_begin, i32 0, i32 0
  %0 = load ptr, ptr %_M_nxt, align 8
  ret ptr %0
}

; Function Attrs: mustprogress nounwind uwtable
define linkonce_odr noundef ptr @_ZNSt8__detail21_Hash_node_value_baseISt4pairIKNSt7__cxx1112basic_stringIcSt11char_traitsIcESaIcEEES7_EE9_M_valptrEv(ptr noundef nonnull align 8 dereferenceable(64) %this) #1 comdat align 2 {
entry:
  %this.addr = alloca ptr, align 8
  store ptr %this, ptr %this.addr, align 8
  %this1 = load ptr, ptr %this.addr, align 8
  %_M_storage = getelementptr inbounds %"struct.std::__detail::_Hash_node_value_base.326", ptr %this1, i32 0, i32 0
  %call = call noundef ptr @_ZN9__gnu_cxx16__aligned_bufferISt4pairIKNSt7__cxx1112basic_stringIcSt11char_traitsIcESaIcEEES7_EE6_M_ptrEv(ptr noundef nonnull align 8 dereferenceable(64) %_M_storage) #3
  ret ptr %call
}

; Function Attrs: mustprogress nounwind uwtable
define linkonce_odr void @_ZSt9__advanceINSt8__detail20_Node_const_iteratorISt4pairIKNSt7__cxx1112basic_stringIcSt11char_traitsIcESaIcEEES8_ELb0ELb1EEElEvRT_T0_St18input_iterator_tag(ptr noundef nonnull align 8 dereferenceable(8) %__i, i64 noundef %__n) #1 comdat {
entry:
  %__i.addr = alloca ptr, align 8
  %__n.addr = alloca i64, align 8
  store ptr %__i, ptr %__i.addr, align 8
  store i64 %__n, ptr %__n.addr, align 8
  br label %do.body

do.body:                                          ; preds = %entry
  br label %do.end

do.end:                                           ; preds = %do.body
  br label %while.cond

while.cond:                                       ; preds = %while.body, %do.end
  %0 = load i64, ptr %__n.addr, align 8
  %dec = add nsw i64 %0, -1
  store i64 %dec, ptr %__n.addr, align 8
  %tobool = icmp ne i64 %0, 0
  br i1 %tobool, label %while.body, label %while.end

while.body:                                       ; preds = %while.cond
  %1 = load ptr, ptr %__i.addr, align 8
  %call = call noundef nonnull align 8 dereferenceable(8) ptr @_ZNSt8__detail20_Node_const_iteratorISt4pairIKNSt7__cxx1112basic_stringIcSt11char_traitsIcESaIcEEES7_ELb0ELb1EEppEv(ptr noundef nonnull align 8 dereferenceable(8) %1) #3
  br label %while.cond, !llvm.loop !382

while.end:                                        ; preds = %while.cond
  ret void
}

; Function Attrs: mustprogress nounwind uwtable
define linkonce_odr void @_ZSt19__iterator_categoryINSt8__detail20_Node_const_iteratorISt4pairIKNSt7__cxx1112basic_stringIcSt11char_traitsIcESaIcEEES8_ELb0ELb1EEEENSt15iterator_traitsIT_E17iterator_categoryERKSD_(ptr noundef nonnull align 8 dereferenceable(8) %0) #1 comdat {
entry:
  %.addr = alloca ptr, align 8
  store ptr %0, ptr %.addr, align 8
  ret void
}

; Function Attrs: mustprogress nounwind uwtable
define linkonce_odr ptr @_ZNKSt10_HashtableINSt7__cxx1112basic_stringIcSt11char_traitsIcESaIcEEESt4pairIKS5_S5_ESaIS8_ENSt8__detail10_Select1stESt8equal_toIS5_ESt4hashIS5_ENSA_18_Mod_range_hashingENSA_20_Default_ranged_hashENSA_20_Prime_rehash_policyENSA_17_Hashtable_traitsILb1ELb0ELb1EEEE5beginEv(ptr noundef nonnull align 8 dereferenceable(56) %this) #1 comdat align 2 {
entry:
  %retval = alloca %"struct.std::__detail::_Node_const_iterator", align 8
  %this.addr = alloca ptr, align 8
  store ptr %this, ptr %this.addr, align 8
  %this1 = load ptr, ptr %this.addr, align 8
  %call = call noundef ptr @_ZNKSt10_HashtableINSt7__cxx1112basic_stringIcSt11char_traitsIcESaIcEEESt4pairIKS5_S5_ESaIS8_ENSt8__detail10_Select1stESt8equal_toIS5_ESt4hashIS5_ENSA_18_Mod_range_hashingENSA_20_Default_ranged_hashENSA_20_Prime_rehash_policyENSA_17_Hashtable_traitsILb1ELb0ELb1EEEE8_M_beginEv(ptr noundef nonnull align 8 dereferenceable(56) %this1)
  call void @_ZNSt8__detail20_Node_const_iteratorISt4pairIKNSt7__cxx1112basic_stringIcSt11char_traitsIcESaIcEEES7_ELb0ELb1EEC2EPNS_10_Hash_nodeIS9_Lb1EEE(ptr noundef nonnull align 8 dereferenceable(8) %retval, ptr noundef %call) #3
  %coerce.dive = getelementptr inbounds %"struct.std::__detail::_Node_const_iterator", ptr %retval, i32 0, i32 0
  %coerce.dive2 = getelementptr inbounds %"struct.std::__detail::_Node_iterator_base.257", ptr %coerce.dive, i32 0, i32 0
  %0 = load ptr, ptr %coerce.dive2, align 8
  ret ptr %0
}

; Function Attrs: mustprogress nounwind uwtable
define linkonce_odr noundef i64 @_ZNKSt10_HashtableINSt7__cxx1112basic_stringIcSt11char_traitsIcESaIcEEESt4pairIKS5_S5_ESaIS8_ENSt8__detail10_Select1stESt8equal_toIS5_ESt4hashIS5_ENSA_18_Mod_range_hashingENSA_20_Default_ranged_hashENSA_20_Prime_rehash_policyENSA_17_Hashtable_traitsILb1ELb0ELb1EEEE4sizeEv(ptr noundef nonnull align 8 dereferenceable(56) %this) #1 comdat align 2 {
entry:
  %this.addr = alloca ptr, align 8
  store ptr %this, ptr %this.addr, align 8
  %this1 = load ptr, ptr %this.addr, align 8
  %_M_element_count = getelementptr inbounds %"class.std::_Hashtable.194", ptr %this1, i32 0, i32 3
  %0 = load i64, ptr %_M_element_count, align 8
  ret i64 %0
}

; Function Attrs: mustprogress nounwind uwtable
define linkonce_odr noundef ptr @_ZNKSt8__detail20_Node_const_iteratorISt4pairIKNSt7__cxx1112basic_stringIcSt11char_traitsIcESaIcEEES7_ELb0ELb1EEptEv(ptr noundef nonnull align 8 dereferenceable(8) %this) #1 comdat align 2 {
entry:
  %this.addr = alloca ptr, align 8
  store ptr %this, ptr %this.addr, align 8
  %this1 = load ptr, ptr %this.addr, align 8
  %_M_cur = getelementptr inbounds %"struct.std::__detail::_Node_iterator_base.257", ptr %this1, i32 0, i32 0
  %0 = load ptr, ptr %_M_cur, align 8
  %add.ptr = getelementptr inbounds i8, ptr %0, i64 8
  %call = call noundef ptr @_ZNSt8__detail21_Hash_node_value_baseISt4pairIKNSt7__cxx1112basic_stringIcSt11char_traitsIcESaIcEEES7_EE9_M_valptrEv(ptr noundef nonnull align 8 dereferenceable(64) %add.ptr) #3
  ret ptr %call
}

; Function Attrs: mustprogress uwtable
define linkonce_odr void @_ZSt7advanceINSt8__detail20_Node_const_iteratorISt4pairIKNSt7__cxx1112basic_stringIcSt11char_traitsIcESaIcEEES8_ELb0ELb1EEEiEvRT_T0_(ptr noundef nonnull align 8 dereferenceable(8) %__i, i32 noundef %__n) #2 comdat {
entry:
  %__i.addr = alloca ptr, align 8
  %__n.addr = alloca i32, align 4
  %__d = alloca i64, align 8
  store ptr %__i, ptr %__i.addr, align 8
  store i32 %__n, ptr %__n.addr, align 4
  %0 = load i32, ptr %__n.addr, align 4
  %conv = sext i32 %0 to i64
  store i64 %conv, ptr %__d, align 8
  %1 = load ptr, ptr %__i.addr, align 8
  %2 = load i64, ptr %__d, align 8
  %3 = load ptr, ptr %__i.addr, align 8
  call void @_ZSt19__iterator_categoryINSt8__detail20_Node_const_iteratorISt4pairIKNSt7__cxx1112basic_stringIcSt11char_traitsIcESaIcEEES8_ELb0ELb1EEEENSt15iterator_traitsIT_E17iterator_categoryERKSD_(ptr noundef nonnull align 8 dereferenceable(8) %3)
  call void @_ZSt9__advanceINSt8__detail20_Node_const_iteratorISt4pairIKNSt7__cxx1112basic_stringIcSt11char_traitsIcESaIcEEES8_ELb0ELb1EEElEvRT_T0_St18input_iterator_tag(ptr noundef nonnull align 8 dereferenceable(8) %1, i64 noundef %2)
  ret void
}

; Function Attrs: mustprogress nounwind uwtable
define linkonce_odr ptr @_ZNKSt13unordered_mapINSt7__cxx1112basic_stringIcSt11char_traitsIcESaIcEEES5_St4hashIS5_ESt8equal_toIS5_ESaISt4pairIKS5_S5_EEE5beginEv(ptr noundef nonnull align 8 dereferenceable(56) %this) #1 comdat align 2 {
entry:
  %retval = alloca %"struct.std::__detail::_Node_const_iterator", align 8
  %this.addr = alloca ptr, align 8
  store ptr %this, ptr %this.addr, align 8
  %this1 = load ptr, ptr %this.addr, align 8
  %_M_h = getelementptr inbounds %"class.std::unordered_map.193", ptr %this1, i32 0, i32 0
  %call = call ptr @_ZNKSt10_HashtableINSt7__cxx1112basic_stringIcSt11char_traitsIcESaIcEEESt4pairIKS5_S5_ESaIS8_ENSt8__detail10_Select1stESt8equal_toIS5_ESt4hashIS5_ENSA_18_Mod_range_hashingENSA_20_Default_ranged_hashENSA_20_Prime_rehash_policyENSA_17_Hashtable_traitsILb1ELb0ELb1EEEE5beginEv(ptr noundef nonnull align 8 dereferenceable(56) %_M_h) #3
  %coerce.dive = getelementptr inbounds %"struct.std::__detail::_Node_const_iterator", ptr %retval, i32 0, i32 0
  %coerce.dive2 = getelementptr inbounds %"struct.std::__detail::_Node_iterator_base.257", ptr %coerce.dive, i32 0, i32 0
  store ptr %call, ptr %coerce.dive2, align 8
  %coerce.dive3 = getelementptr inbounds %"struct.std::__detail::_Node_const_iterator", ptr %retval, i32 0, i32 0
  %coerce.dive4 = getelementptr inbounds %"struct.std::__detail::_Node_iterator_base.257", ptr %coerce.dive3, i32 0, i32 0
  %0 = load ptr, ptr %coerce.dive4, align 8
  ret ptr %0
}

; Function Attrs: mustprogress nounwind uwtable
define linkonce_odr noundef i64 @_ZNKSt13unordered_mapINSt7__cxx1112basic_stringIcSt11char_traitsIcESaIcEEES5_St4hashIS5_ESt8equal_toIS5_ESaISt4pairIKS5_S5_EEE4sizeEv(ptr noundef nonnull align 8 dereferenceable(56) %this) #1 comdat align 2 {
entry:
  %this.addr = alloca ptr, align 8
  store ptr %this, ptr %this.addr, align 8
  %this1 = load ptr, ptr %this.addr, align 8
  %_M_h = getelementptr inbounds %"class.std::unordered_map.193", ptr %this1, i32 0, i32 0
  %call = call noundef i64 @_ZNKSt10_HashtableINSt7__cxx1112basic_stringIcSt11char_traitsIcESaIcEEESt4pairIKS5_S5_ESaIS8_ENSt8__detail10_Select1stESt8equal_toIS5_ESt4hashIS5_ENSA_18_Mod_range_hashingENSA_20_Default_ranged_hashENSA_20_Prime_rehash_policyENSA_17_Hashtable_traitsILb1ELb0ELb1EEEE4sizeEv(ptr noundef nonnull align 8 dereferenceable(56) %_M_h) #3
  ret i64 %call
}

; Function Attrs: mustprogress uwtable
define i32 @llama_model_meta_val_str_by_index(ptr noundef %model, i32 noundef %i, ptr noundef %buf, i64 noundef %buf_size) #2 {
entry:
  %retval = alloca i32, align 4
  %model.addr = alloca ptr, align 8
  %i.addr = alloca i32, align 4
  %buf.addr = alloca ptr, align 8
  %buf_size.addr = alloca i64, align 8
  %it = alloca %"struct.std::__detail::_Node_const_iterator", align 8
  store ptr %model, ptr %model.addr, align 8
  store i32 %i, ptr %i.addr, align 4
  store ptr %buf, ptr %buf.addr, align 8
  store i64 %buf_size, ptr %buf_size.addr, align 8
  %0 = load i32, ptr %i.addr, align 4
  %cmp = icmp slt i32 %0, 0
  br i1 %cmp, label %if.then, label %lor.lhs.false

lor.lhs.false:                                    ; preds = %entry
  %1 = load i32, ptr %i.addr, align 4
  %2 = load ptr, ptr %model.addr, align 8
  %gguf_kv = getelementptr inbounds %struct.llama_model, ptr %2, i32 0, i32 15
  %call = call noundef i64 @_ZNKSt13unordered_mapINSt7__cxx1112basic_stringIcSt11char_traitsIcESaIcEEES5_St4hashIS5_ESt8equal_toIS5_ESaISt4pairIKS5_S5_EEE4sizeEv(ptr noundef nonnull align 8 dereferenceable(56) %gguf_kv) #3
  %conv = trunc i64 %call to i32
  %cmp1 = icmp sge i32 %1, %conv
  br i1 %cmp1, label %if.then, label %if.end4

if.then:                                          ; preds = %lor.lhs.false, %entry
  %3 = load i64, ptr %buf_size.addr, align 8
  %cmp2 = icmp ugt i64 %3, 0
  br i1 %cmp2, label %if.then3, label %if.end

if.then3:                                         ; preds = %if.then
  %4 = load ptr, ptr %buf.addr, align 8
  %arrayidx = getelementptr inbounds i8, ptr %4, i64 0
  store i8 0, ptr %arrayidx, align 1
  br label %if.end

if.end:                                           ; preds = %if.then3, %if.then
  store i32 -1, ptr %retval, align 4
  br label %return

if.end4:                                          ; preds = %lor.lhs.false
  %5 = load ptr, ptr %model.addr, align 8
  %gguf_kv5 = getelementptr inbounds %struct.llama_model, ptr %5, i32 0, i32 15
  %call6 = call ptr @_ZNKSt13unordered_mapINSt7__cxx1112basic_stringIcSt11char_traitsIcESaIcEEES5_St4hashIS5_ESt8equal_toIS5_ESaISt4pairIKS5_S5_EEE5beginEv(ptr noundef nonnull align 8 dereferenceable(56) %gguf_kv5) #3
  %coerce.dive = getelementptr inbounds %"struct.std::__detail::_Node_const_iterator", ptr %it, i32 0, i32 0
  %coerce.dive7 = getelementptr inbounds %"struct.std::__detail::_Node_iterator_base.257", ptr %coerce.dive, i32 0, i32 0
  store ptr %call6, ptr %coerce.dive7, align 8
  %6 = load i32, ptr %i.addr, align 4
  call void @_ZSt7advanceINSt8__detail20_Node_const_iteratorISt4pairIKNSt7__cxx1112basic_stringIcSt11char_traitsIcESaIcEEES8_ELb0ELb1EEEiEvRT_T0_(ptr noundef nonnull align 8 dereferenceable(8) %it, i32 noundef %6)
  %7 = load ptr, ptr %buf.addr, align 8
  %8 = load i64, ptr %buf_size.addr, align 8
  %call8 = call noundef ptr @_ZNKSt8__detail20_Node_const_iteratorISt4pairIKNSt7__cxx1112basic_stringIcSt11char_traitsIcESaIcEEES7_ELb0ELb1EEptEv(ptr noundef nonnull align 8 dereferenceable(8) %it) #3
  %second = getelementptr inbounds %"struct.std::pair.258", ptr %call8, i32 0, i32 1
  %call9 = call noundef ptr @_ZNKSt7__cxx1112basic_stringIcSt11char_traitsIcESaIcEE5c_strEv(ptr noundef nonnull align 8 dereferenceable(32) %second) #3
  %call10 = call i32 (ptr, i64, ptr, ...) @snprintf(ptr noundef %7, i64 noundef %8, ptr noundef @.str.188, ptr noundef %call9) #3
  store i32 %call10, ptr %retval, align 4
  br label %return

return:                                           ; preds = %if.end4, %if.end
  %9 = load i32, ptr %retval, align 4
  ret i32 %9
}